target datalayout = "e-m:e-p270:32:32-p271:32:32-p272:64:64-i64:64-i128:128-f80:128-n8:16:32:64-S128"
target triple = "x86_64-pc-linux-gnu"

%"class.cvc5::main::(anonymous namespace)::Pipe" = type { [2 x i32] }

; Function Attrs: mustprogress uwtable
define internal void @_ZN4cvc54main12_GLOBAL__N_14Pipe3dupEi(ptr noundef nonnull align 4 dereferenceable(8) %0, i32 noundef %1) #4 align 2 {
  %3 = alloca ptr, align 8
  %4 = alloca i32, align 4
  store ptr %0, ptr %3, align 8, !tbaa !335
  store i32 %1, ptr %4, align 4, !tbaa !114
  %5 = load ptr, ptr %3, align 8
  br label %6

6:                                                ; preds = %19, %2
  %7 = getelementptr inbounds nuw %"class.cvc5::main::(anonymous namespace)::Pipe", ptr %5, i32 0, i32 0
  %8 = getelementptr inbounds [2 x i32], ptr %7, i64 0, i64 1
  %9 = load i32, ptr %8, align 4, !tbaa !114
  %10 = load i32, ptr %4, align 4, !tbaa !114
  %11 = call i32 @dup2(i32 noundef %9, i32 noundef %10) #3
  %12 = icmp eq i32 %11, -1
  br i1 %12, label %13, label %17

13:                                               ; preds = %6
  %14 = call ptr @__errno_location() #26
  %15 = load i32, ptr %14, align 4, !tbaa !114
  %16 = icmp eq i32 %15, 4
  br label %17

17:                                               ; preds = %13, %6
  %18 = phi i1 [ false, %6 ], [ %16, %13 ]
  br i1 %18, label %19, label %20

19:                                               ; preds = %17
  br label %6, !llvm.loop !369

20:                                               ; preds = %17
  %21 = getelementptr inbounds nuw %"class.cvc5::main::(anonymous namespace)::Pipe", ptr %5, i32 0, i32 0
  %22 = getelementptr inbounds [2 x i32], ptr %21, i64 0, i64 0
  %23 = load i32, ptr %22, align 4, !tbaa !114
  %24 = call i32 @close(i32 noundef %23)
  %25 = getelementptr inbounds nuw %"class.cvc5::main::(anonymous namespace)::Pipe", ptr %5, i32 0, i32 0
  %26 = getelementptr inbounds [2 x i32], ptr %25, i64 0, i64 1
  %27 = load i32, ptr %26, align 4, !tbaa !114
  %28 = call i32 @close(i32 noundef %27)
  ret void
}