; Function Attrs: mustprogress uwtable
define internal fastcc void @_ZN4cvc54main12_GLOBAL__N_14Pipe3dupEi(ptr noundef nonnull readonly align 4 captures(none) dereferenceable(8) %0, i32 noundef range(i32 1, 3) %1) unnamed_addr #3 align 2 {
  %3 = getelementptr inbounds nuw i8, ptr %0, i64 4
  br label %4

4:                                                ; preds = %8, %2
  %5 = load i32, ptr %3, align 4, !tbaa !20
  %6 = tail call i32 @dup2(i32 noundef %5, i32 noundef %1) #26
  %7 = icmp eq i32 %6, -1
  br i1 %7, label %8, label %.critedge

8:                                                ; preds = %4
  %9 = tail call ptr @__errno_location() #31
  %10 = load i32, ptr %9, align 4, !tbaa !20
  %11 = icmp eq i32 %10, 4
  br i1 %11, label %4, label %.critedge, !llvm.loop !173

.critedge:                                        ; preds = %4, %8
  %12 = load i32, ptr %0, align 4, !tbaa !20
  %13 = tail call i32 @close(i32 noundef %12)
  %14 = load i32, ptr %3, align 4, !tbaa !20
  %15 = tail call i32 @close(i32 noundef %14)
  ret void
}